; Function Attrs: mustprogress nounwind uwtable
define dso_local void @_ZN5clang4ento33RegionAndSymbolInvalidationTraits8setTraitEPKNS0_7SymExprENS1_17InvalidationKindsE(ptr noundef nonnull align 8 dereferenceable(48) %0, ptr noundef %1, i32 noundef %2) local_unnamed_addr #3 align 2 {
  %4 = alloca ptr, align 8
  store ptr %1, ptr %4, align 8
  %5 = getelementptr inbounds nuw i8, ptr %0, i64 24
  %6 = load ptr, ptr %5, align 8
  %7 = getelementptr inbounds i8, ptr %0, i64 40
  %8 = load i32, ptr %7, align 8
  %9 = icmp eq i32 %8, 0
  br i1 %9, label %_ZN4llvm12DenseMapBaseINS_8DenseMapIPKN5clang4ento7SymExprEhNS_12DenseMapInfoIS6_vEENS_6detail12DenseMapPairIS6_hEEEES6_hS8_SB_E15LookupBucketForIS6_EEbRKT_RPSB_.exit.i.i, label %10

10:                                               ; preds = %3
  %11 = ptrtoint ptr %1 to i64
  %12 = trunc i64 %11 to i32
  %13 = lshr i32 %12, 4
  %14 = lshr i32 %12, 9
  %15 = xor i32 %13, %14
  %16 = add i32 %8, -1
  %.02733.i.i.i.i = and i32 %16, %15
  %17 = zext nneg i32 %.02733.i.i.i.i to i64
  %18 = getelementptr inbounds %"struct.llvm::detail::DenseMapPair", ptr %6, i64 %17
  %19 = load ptr, ptr %18, align 8
  %20 = icmp eq ptr %1, %19
  br i1 %20, label %_ZN4llvm12DenseMapBaseINS_8DenseMapIPKN5clang4ento7SymExprEhNS_12DenseMapInfoIS6_vEENS_6detail12DenseMapPairIS6_hEEEES6_hS8_SB_EixERKS6_.exit, label %.lr.ph.i.i.i.i

.lr.ph.i.i.i.i:                                   ; preds = %10, %26
  %21 = phi ptr [ %33, %26 ], [ %19, %10 ]
  %22 = phi ptr [ %32, %26 ], [ %18, %10 ]
  %.02736.i.i.i.i = phi i32 [ %.027.i.i.i.i, %26 ], [ %.02733.i.i.i.i, %10 ]
  %.02635.i.i.i.i = phi i32 [ %29, %26 ], [ 1, %10 ]
  %.02834.i.i.i.i = phi ptr [ %spec.select.i.i.i.i, %26 ], [ null, %10 ]
  %23 = icmp eq ptr %21, inttoptr (i64 -4096 to ptr)
  br i1 %23, label %24, label %26

24:                                               ; preds = %.lr.ph.i.i.i.i
  %.not.i.i.i.i = icmp eq ptr %.02834.i.i.i.i, null
  %25 = select i1 %.not.i.i.i.i, ptr %22, ptr %.02834.i.i.i.i
  br label %_ZN4llvm12DenseMapBaseINS_8DenseMapIPKN5clang4ento7SymExprEhNS_12DenseMapInfoIS6_vEENS_6detail12DenseMapPairIS6_hEEEES6_hS8_SB_E15LookupBucketForIS6_EEbRKT_RPSB_.exit.i.i

26:                                               ; preds = %.lr.ph.i.i.i.i
  %27 = icmp eq ptr %21, inttoptr (i64 -8192 to ptr)
  %28 = icmp eq ptr %.02834.i.i.i.i, null
  %or.cond.not.i.i.i.i = select i1 %27, i1 %28, i1 false
  %spec.select.i.i.i.i = select i1 %or.cond.not.i.i.i.i, ptr %22, ptr %.02834.i.i.i.i
  %29 = add i32 %.02635.i.i.i.i, 1
  %30 = add i32 %.02635.i.i.i.i, %.02736.i.i.i.i
  %.027.i.i.i.i = and i32 %30, %16
  %31 = zext i32 %.027.i.i.i.i to i64
  %32 = getelementptr inbounds %"struct.llvm::detail::DenseMapPair", ptr %6, i64 %31
  %33 = load ptr, ptr %32, align 8
  %34 = icmp eq ptr %1, %33
  br i1 %34, label %_ZN4llvm12DenseMapBaseINS_8DenseMapIPKN5clang4ento7SymExprEhNS_12DenseMapInfoIS6_vEENS_6detail12DenseMapPairIS6_hEEEES6_hS8_SB_EixERKS6_.exit, label %.lr.ph.i.i.i.i, !llvm.loop !91

_ZN4llvm12DenseMapBaseINS_8DenseMapIPKN5clang4ento7SymExprEhNS_12DenseMapInfoIS6_vEENS_6detail12DenseMapPairIS6_hEEEES6_hS8_SB_E15LookupBucketForIS6_EEbRKT_RPSB_.exit.i.i: ; preds = %24, %3
  %.sink.i.i.i.i = phi ptr [ %25, %24 ], [ null, %3 ]
  %35 = call noundef ptr @_ZN4llvm12DenseMapBaseINS_8DenseMapIPKN5clang4ento7SymExprEhNS_12DenseMapInfoIS6_vEENS_6detail12DenseMapPairIS6_hEEEES6_hS8_SB_E20InsertIntoBucketImplIS6_EEPSB_RKS6_RKT_SF_(ptr noundef nonnull align 1 dereferenceable(1) %5, ptr noundef nonnull align 8 dereferenceable(8) %4, ptr noundef nonnull align 8 dereferenceable(8) %4, ptr noundef %.sink.i.i.i.i)
  %36 = load ptr, ptr %4, align 8
  store ptr %36, ptr %35, align 8
  %37 = getelementptr inbounds nuw i8, ptr %35, i64 8
  store i8 0, ptr %37, align 1
  br label %_ZN4llvm12DenseMapBaseINS_8DenseMapIPKN5clang4ento7SymExprEhNS_12DenseMapInfoIS6_vEENS_6detail12DenseMapPairIS6_hEEEES6_hS8_SB_EixERKS6_.exit

_ZN4llvm12DenseMapBaseINS_8DenseMapIPKN5clang4ento7SymExprEhNS_12DenseMapInfoIS6_vEENS_6detail12DenseMapPairIS6_hEEEES6_hS8_SB_EixERKS6_.exit: ; preds = %26, %10, %_ZN4llvm12DenseMapBaseINS_8DenseMapIPKN5clang4ento7SymExprEhNS_12DenseMapInfoIS6_vEENS_6detail12DenseMapPairIS6_hEEEES6_hS8_SB_E15LookupBucketForIS6_EEbRKT_RPSB_.exit.i.i
  %.0.i.i = phi ptr [ %35, %_ZN4llvm12DenseMapBaseINS_8DenseMapIPKN5clang4ento7SymExprEhNS_12DenseMapInfoIS6_vEENS_6detail12DenseMapPairIS6_hEEEES6_hS8_SB_E15LookupBucketForIS6_EEbRKT_RPSB_.exit.i.i ], [ %18, %10 ], [ %32, %26 ]
  %38 = getelementptr inbounds nuw i8, ptr %.0.i.i, i64 8
  %39 = load i8, ptr %38, align 1
  %40 = trunc i32 %2 to i8
  %41 = or i8 %39, %40
  store i8 %41, ptr %38, align 1
  ret void
}